; Function Attrs: null_pointer_is_valid sspstrong uwtable
define noundef zeroext i1 @prefs_remove_decode_as_value(ptr noundef readonly captures(none) %0, i32 noundef %1, i1 noundef zeroext %2) local_unnamed_addr #1 {
  %4 = getelementptr inbounds nuw i8, ptr %0, i64 28
  %5 = load i32, ptr %4, align 4
  %cond = icmp eq i32 %5, 8192
  br i1 %cond, label %6, label %11

6:                                                ; preds = %3
  %7 = tail call ptr @wmem_epan_scope()
  %8 = getelementptr inbounds nuw i8, ptr %0, i64 40
  %9 = load ptr, ptr %8, align 8
  %10 = tail call zeroext i1 @range_remove_value(ptr noundef %7, ptr noundef %9, i32 noundef %1)
  br label %11

11:                                               ; preds = %3, %6
  ret i1 true
}